; Function Attrs: mustprogress nounwind uwtable
define dso_local noundef range(i32 0, 536870913) i32 @_ZNK4llvm10DataLayout15getMaxIndexSizeEv(ptr noundef nonnull align 8 dereferenceable(512) %0) local_unnamed_addr #0 align 2 {
  %2 = getelementptr inbounds nuw i8, ptr %0, i64 272
  %3 = load ptr, ptr %2, align 8
  %4 = tail call noundef i64 @_ZNK4llvm15SmallVectorBaseIjE4sizeEv(ptr noundef nonnull align 8 dereferenceable(16) %2) #19
  %5 = getelementptr inbounds %"struct.llvm::DataLayout::PointerSpec", ptr %3, i64 %4
  %.not13 = icmp eq i64 %4, 0
  br i1 %.not13, label %._crit_edge, label %.lr.ph

.lr.ph:                                           ; preds = %1, %.lr.ph
  %.015 = phi ptr [ %13, %.lr.ph ], [ %3, %1 ]
  %.01214 = phi i32 [ %.sroa.speculated, %.lr.ph ], [ 0, %1 ]
  %6 = getelementptr inbounds nuw i8, ptr %.015, i64 4
  %7 = load i32, ptr %6, align 4
  %8 = icmp ne i32 %7, 0
  %9 = zext i1 %8 to i32
  %10 = sub i32 %7, %9
  %11 = lshr i32 %10, 3
  %12 = add nuw nsw i32 %11, %9
  %.sroa.speculated = tail call i32 @llvm.umax.i32(i32 %.01214, i32 %12)
  %13 = getelementptr inbounds nuw i8, ptr %.015, i64 16
  %.not = icmp eq ptr %13, %5
  br i1 %.not, label %._crit_edge, label %.lr.ph

._crit_edge:                                      ; preds = %.lr.ph, %1
  %.012.lcssa = phi i32 [ 0, %1 ], [ %.sroa.speculated, %.lr.ph ]
  ret i32 %.012.lcssa
}